; ModuleID = '41/628.cpp'
source_filename = "41/628.cpp"
target datalayout = "e-m:e-p270:32:32-p271:32:32-p272:64:64-i64:64-f80:128-n8:16:32:64-S128"
target triple = "x86_64-pc-linux-gnu"

%"class.std::ios_base::Init" = type { i8 }
%"class.std::basic_ostream" = type { i32 (...)**, %"class.std::basic_ios" }
%"class.std::basic_ios" = type { %"class.std::ios_base", %"class.std::basic_ostream"*, i8, i8, %"class.std::basic_streambuf"*, %"class.std::ctype"*, %"class.std::num_put"*, %"class.std::num_get"* }
%"class.std::ios_base" = type { i32 (...)**, i64, i64, i32, i32, i32, %"struct.std::ios_base::_Callback_list"*, %"struct.std::ios_base::_Words", [8 x %"struct.std::ios_base::_Words"], i32, %"struct.std::ios_base::_Words"*, %"class.std::locale" }
%"struct.std::ios_base::_Callback_list" = type { %"struct.std::ios_base::_Callback_list"*, void (i32, %"class.std::ios_base"*, i32)*, i32, i32 }
%"struct.std::ios_base::_Words" = type { i8*, i64 }
%"class.std::locale" = type { %"class.std::locale::_Impl"* }
%"class.std::locale::_Impl" = type { i32, %"class.std::locale::facet"**, i64, %"class.std::locale::facet"**, i8** }
%"class.std::locale::facet" = type <{ i32 (...)**, i32, [4 x i8] }>
%"class.std::basic_streambuf" = type { i32 (...)**, i8*, i8*, i8*, i8*, i8*, i8*, %"class.std::locale" }
%"class.std::ctype" = type <{ %"class.std::locale::facet.base", [4 x i8], %struct.__locale_struct*, i8, [7 x i8], i32*, i32*, i16*, i8, [256 x i8], [256 x i8], i8, [6 x i8] }>
%"class.std::locale::facet.base" = type <{ i32 (...)**, i32 }>
%struct.__locale_struct = type { [13 x %struct.__locale_data*], i16*, i32*, i32*, [13 x i8*] }
%struct.__locale_data = type opaque
%"class.std::num_put" = type { %"class.std::locale::facet.base", [4 x i8] }
%"class.std::num_get" = type { %"class.std::locale::facet.base", [4 x i8] }

@_ZStL8__ioinit = internal global %"class.std::ios_base::Init" zeroinitializer, align 1
@__dso_handle = external hidden global i8
@_ZSt4cout = external dso_local global %"class.std::basic_ostream", align 8
@llvm.global_ctors = appending global [1 x { i32, void ()*, i8* }] [{ i32, void ()*, i8* } { i32 65535, void ()* @_GLOBAL__sub_I_628.cpp, i8* null }]

; Function Attrs: noinline uwtable
define internal void @__cxx_global_var_init() #0 section ".text.startup" {
  call void @_ZNSt8ios_base4InitC1Ev(%"class.std::ios_base::Init"* @_ZStL8__ioinit)
  %1 = call i32 @__cxa_atexit(void (i8*)* bitcast (void (%"class.std::ios_base::Init"*)* @_ZNSt8ios_base4InitD1Ev to void (i8*)*), i8* getelementptr inbounds (%"class.std::ios_base::Init", %"class.std::ios_base::Init"* @_ZStL8__ioinit, i32 0, i32 0), i8* @__dso_handle) #3
  ret void
}

declare dso_local void @_ZNSt8ios_base4InitC1Ev(%"class.std::ios_base::Init"*) unnamed_addr #1

; Function Attrs: nounwind
declare dso_local void @_ZNSt8ios_base4InitD1Ev(%"class.std::ios_base::Init"*) unnamed_addr #2

; Function Attrs: nounwind
declare dso_local i32 @__cxa_atexit(void (i8*)*, i8*, i8*) #3

; Function Attrs: noinline norecurse uwtable
define dso_local i32 @main() #4 {
  %1 = alloca i32, align 4
  %2 = alloca i32, align 4
  %3 = alloca i32, align 4
  %4 = alloca i32, align 4
  %5 = alloca i32, align 4
  %6 = alloca i32, align 4
  %7 = alloca [6 x i32], align 16
  store i32 0, i32* %1, align 4
  store i32 1, i32* %2, align 4
  br label %8

8:                                                ; preds = %141, %0
  %9 = load i32, i32* %2, align 4
  %10 = icmp sle i32 %9, 5
  br i1 %10, label %11, label %144

11:                                               ; preds = %8
  store i32 1, i32* %3, align 4
  br label %12

12:                                               ; preds = %137, %11
  %13 = load i32, i32* %3, align 4
  %14 = icmp sle i32 %13, 5
  br i1 %14, label %15, label %140

15:                                               ; preds = %12
  %16 = load i32, i32* %2, align 4
  %17 = load i32, i32* %3, align 4
  %18 = icmp eq i32 %16, %17
  br i1 %18, label %19, label %20

19:                                               ; preds = %15
  br label %137

20:                                               ; preds = %15
  store i32 1, i32* %4, align 4
  br label %21

21:                                               ; preds = %133, %20
  %22 = load i32, i32* %4, align 4
  %23 = icmp sle i32 %22, 5
  br i1 %23, label %24, label %136

24:                                               ; preds = %21
  %25 = load i32, i32* %2, align 4
  %26 = load i32, i32* %4, align 4
  %27 = icmp eq i32 %25, %26
  br i1 %27, label %32, label %28

28:                                               ; preds = %24
  %29 = load i32, i32* %3, align 4
  %30 = load i32, i32* %4, align 4
  %31 = icmp eq i32 %29, %30
  br i1 %31, label %32, label %33

32:                                               ; preds = %28, %24
  br label %133

33:                                               ; preds = %28
  store i32 1, i32* %5, align 4
  br label %34

34:                                               ; preds = %129, %33
  %35 = load i32, i32* %5, align 4
  %36 = icmp sle i32 %35, 5
  br i1 %36, label %37, label %132

37:                                               ; preds = %34
  %38 = load i32, i32* %2, align 4
  %39 = load i32, i32* %5, align 4
  %40 = icmp eq i32 %38, %39
  br i1 %40, label %49, label %41

41:                                               ; preds = %37
  %42 = load i32, i32* %3, align 4
  %43 = load i32, i32* %5, align 4
  %44 = icmp eq i32 %42, %43
  br i1 %44, label %49, label %45

45:                                               ; preds = %41
  %46 = load i32, i32* %4, align 4
  %47 = load i32, i32* %5, align 4
  %48 = icmp eq i32 %46, %47
  br i1 %48, label %49, label %50

49:                                               ; preds = %45, %41, %37
  br label %129

50:                                               ; preds = %45
  %51 = load i32, i32* %2, align 4
  %52 = sub nsw i32 15, %51
  %53 = load i32, i32* %3, align 4
  %54 = sub nsw i32 %52, %53
  %55 = load i32, i32* %4, align 4
  %56 = sub nsw i32 %54, %55
  %57 = load i32, i32* %5, align 4
  %58 = sub nsw i32 %56, %57
  store i32 %58, i32* %6, align 4
  %59 = load i32, i32* %6, align 4
  %60 = icmp eq i32 %59, 2
  br i1 %60, label %64, label %61

61:                                               ; preds = %50
  %62 = load i32, i32* %6, align 4
  %63 = icmp eq i32 %62, 3
  br i1 %63, label %64, label %65

64:                                               ; preds = %61, %50
  br label %129

65:                                               ; preds = %61
  %66 = load i32, i32* %6, align 4
  %67 = icmp eq i32 %66, 1
  %68 = zext i1 %67 to i32
  %69 = load i32, i32* %2, align 4
  %70 = sext i32 %69 to i64
  %71 = getelementptr inbounds [6 x i32], [6 x i32]* %7, i64 0, i64 %70
  store i32 %68, i32* %71, align 4
  %72 = load i32, i32* %3, align 4
  %73 = icmp eq i32 %72, 2
  %74 = zext i1 %73 to i32
  %75 = load i32, i32* %3, align 4
  %76 = sext i32 %75 to i64
  %77 = getelementptr inbounds [6 x i32], [6 x i32]* %7, i64 0, i64 %76
  store i32 %74, i32* %77, align 4
  %78 = load i32, i32* %2, align 4
  %79 = icmp eq i32 %78, 5
  %80 = zext i1 %79 to i32
  %81 = load i32, i32* %4, align 4
  %82 = sext i32 %81 to i64
  %83 = getelementptr inbounds [6 x i32], [6 x i32]* %7, i64 0, i64 %82
  store i32 %80, i32* %83, align 4
  %84 = load i32, i32* %4, align 4
  %85 = icmp ne i32 %84, 1
  %86 = zext i1 %85 to i32
  %87 = load i32, i32* %5, align 4
  %88 = sext i32 %87 to i64
  %89 = getelementptr inbounds [6 x i32], [6 x i32]* %7, i64 0, i64 %88
  store i32 %86, i32* %89, align 4
  %90 = load i32, i32* %5, align 4
  %91 = icmp eq i32 %90, 1
  %92 = zext i1 %91 to i32
  %93 = load i32, i32* %6, align 4
  %94 = sext i32 %93 to i64
  %95 = getelementptr inbounds [6 x i32], [6 x i32]* %7, i64 0, i64 %94
  store i32 %92, i32* %95, align 4
  %96 = getelementptr inbounds [6 x i32], [6 x i32]* %7, i64 0, i64 1
  %97 = load i32, i32* %96, align 4
  %98 = icmp eq i32 %97, 1
  br i1 %98, label %99, label %128

99:                                               ; preds = %65
  %100 = getelementptr inbounds [6 x i32], [6 x i32]* %7, i64 0, i64 2
  %101 = load i32, i32* %100, align 8
  %102 = icmp eq i32 %101, 1
  br i1 %102, label %103, label %128

103:                                              ; preds = %99
  %104 = getelementptr inbounds [6 x i32], [6 x i32]* %7, i64 0, i64 3
  %105 = load i32, i32* %104, align 4
  %106 = getelementptr inbounds [6 x i32], [6 x i32]* %7, i64 0, i64 4
  %107 = load i32, i32* %106, align 16
  %108 = add nsw i32 %105, %107
  %109 = getelementptr inbounds [6 x i32], [6 x i32]* %7, i64 0, i64 5
  %110 = load i32, i32* %109, align 4
  %111 = add nsw i32 %108, %110
  %112 = icmp eq i32 %111, 0
  br i1 %112, label %113, label %128

113:                                              ; preds = %103
  %114 = load i32, i32* %2, align 4
  %115 = call dereferenceable(272) %"class.std::basic_ostream"* @_ZNSolsEi(%"class.std::basic_ostream"* @_ZSt4cout, i32 %114)
  %116 = call dereferenceable(272) %"class.std::basic_ostream"* @_ZStlsISt11char_traitsIcEERSt13basic_ostreamIcT_ES5_c(%"class.std::basic_ostream"* dereferenceable(272) %115, i8 signext 32)
  %117 = load i32, i32* %3, align 4
  %118 = call dereferenceable(272) %"class.std::basic_ostream"* @_ZNSolsEi(%"class.std::basic_ostream"* %116, i32 %117)
  %119 = call dereferenceable(272) %"class.std::basic_ostream"* @_ZStlsISt11char_traitsIcEERSt13basic_ostreamIcT_ES5_c(%"class.std::basic_ostream"* dereferenceable(272) %118, i8 signext 32)
  %120 = load i32, i32* %4, align 4
  %121 = call dereferenceable(272) %"class.std::basic_ostream"* @_ZNSolsEi(%"class.std::basic_ostream"* %119, i32 %120)
  %122 = call dereferenceable(272) %"class.std::basic_ostream"* @_ZStlsISt11char_traitsIcEERSt13basic_ostreamIcT_ES5_c(%"class.std::basic_ostream"* dereferenceable(272) %121, i8 signext 32)
  %123 = load i32, i32* %5, align 4
  %124 = call dereferenceable(272) %"class.std::basic_ostream"* @_ZNSolsEi(%"class.std::basic_ostream"* %122, i32 %123)
  %125 = call dereferenceable(272) %"class.std::basic_ostream"* @_ZStlsISt11char_traitsIcEERSt13basic_ostreamIcT_ES5_c(%"class.std::basic_ostream"* dereferenceable(272) %124, i8 signext 32)
  %126 = load i32, i32* %6, align 4
  %127 = call dereferenceable(272) %"class.std::basic_ostream"* @_ZNSolsEi(%"class.std::basic_ostream"* %125, i32 %126)
  br label %128

128:                                              ; preds = %113, %103, %99, %65
  br label %129

129:                                              ; preds = %128, %64, %49
  %130 = load i32, i32* %5, align 4
  %131 = add nsw i32 %130, 1
  store i32 %131, i32* %5, align 4
  br label %34

132:                                              ; preds = %34
  br label %133

133:                                              ; preds = %132, %32
  %134 = load i32, i32* %4, align 4
  %135 = add nsw i32 %134, 1
  store i32 %135, i32* %4, align 4
  br label %21

136:                                              ; preds = %21
  br label %137

137:                                              ; preds = %136, %19
  %138 = load i32, i32* %3, align 4
  %139 = add nsw i32 %138, 1
  store i32 %139, i32* %3, align 4
  br label %12

140:                                              ; preds = %12
  br label %141

141:                                              ; preds = %140
  %142 = load i32, i32* %2, align 4
  %143 = add nsw i32 %142, 1
  store i32 %143, i32* %2, align 4
  br label %8

144:                                              ; preds = %8
  ret i32 0
}

declare dso_local dereferenceable(272) %"class.std::basic_ostream"* @_ZStlsISt11char_traitsIcEERSt13basic_ostreamIcT_ES5_c(%"class.std::basic_ostream"* dereferenceable(272), i8 signext) #1

declare dso_local dereferenceable(272) %"class.std::basic_ostream"* @_ZNSolsEi(%"class.std::basic_ostream"*, i32) #1

; Function Attrs: noinline uwtable
define internal void @_GLOBAL__sub_I_628.cpp() #0 section ".text.startup" {
  call void @__cxx_global_var_init()
  ret void
}


!llvm.module.flags = !{!0}
!llvm.ident = !{!1}

!0 = !{i32 1, !"wchar_size", i32 4}
!1 = !{!"clang version 10.0.0-4ubuntu1 "}
